; Function Attrs: nounwind uwtable
define ptr @l_Lean_PrettyPrinter_Formatter_pushAlign___boxed(ptr noundef %0, ptr noundef %1, ptr noundef %2, ptr noundef %3, ptr noundef %4, ptr noundef %5) local_unnamed_addr #0 {
  %7 = ptrtoint ptr %0 to i64
  %8 = lshr i64 %7, 1
  %9 = trunc i64 %8 to i8
  %10 = and i64 %7, 1
  %.not = icmp eq i64 %10, 0
  br i1 %.not, label %11, label %lean_dec.exit15

11:                                               ; preds = %6
  %12 = load i32, ptr %0, align 4, !tbaa !8
  %13 = icmp sgt i32 %12, 1
  br i1 %13, label %14, label %16, !prof !11

14:                                               ; preds = %11
  %15 = add nsw i32 %12, -1
  store i32 %15, ptr %0, align 4, !tbaa !8
  br label %lean_dec.exit15

16:                                               ; preds = %11
  %.not.i = icmp eq i32 %12, 0
  br i1 %.not.i, label %lean_dec.exit15, label %17

17:                                               ; preds = %16
  tail call void @lean_dec_ref_cold(ptr noundef nonnull %0) #6
  br label %lean_dec.exit15

lean_dec.exit15:                                  ; preds = %17, %16, %14, %6
  tail call void @lean_inc_heartbeat() #6
  %18 = tail call noalias ptr @mi_malloc_small(i64 noundef 16) #6
  %19 = icmp eq ptr %18, null
  br i1 %19, label %20, label %l_Lean_PrettyPrinter_Formatter_pushAlign.exit

20:                                               ; preds = %lean_dec.exit15
  tail call void @lean_internal_panic_out_of_memory() #7
  unreachable

l_Lean_PrettyPrinter_Formatter_pushAlign.exit:    ; preds = %lean_dec.exit15
  %21 = getelementptr inbounds nuw i8, ptr %18, i64 4
  %22 = getelementptr inbounds nuw i8, ptr %18, i64 8
  store i64 0, ptr %22, align 8, !tbaa !13
  store i32 1, ptr %18, align 4, !tbaa !8
  store i32 33554448, ptr %21, align 4
  store i8 %9, ptr %22, align 1, !tbaa !17
  %23 = tail call ptr @l_Lean_PrettyPrinter_Formatter_pushWhitespace(ptr noundef nonnull %18, ptr readnone poison, ptr noundef %2, ptr readnone poison, ptr readnone poison, ptr noundef %5)
  %24 = ptrtoint ptr %4 to i64
  %25 = and i64 %24, 1
  %.not24 = icmp eq i64 %25, 0
  br i1 %.not24, label %26, label %lean_dec.exit14

26:                                               ; preds = %l_Lean_PrettyPrinter_Formatter_pushAlign.exit
  %27 = load i32, ptr %4, align 4, !tbaa !8
  %28 = icmp sgt i32 %27, 1
  br i1 %28, label %29, label %31, !prof !11

29:                                               ; preds = %26
  %30 = add nsw i32 %27, -1
  store i32 %30, ptr %4, align 4, !tbaa !8
  br label %lean_dec.exit14

31:                                               ; preds = %26
  %.not.i16 = icmp eq i32 %27, 0
  br i1 %.not.i16, label %lean_dec.exit14, label %32

32:                                               ; preds = %31
  tail call void @lean_dec_ref_cold(ptr noundef nonnull %4) #6
  br label %lean_dec.exit14

lean_dec.exit14:                                  ; preds = %32, %31, %29, %l_Lean_PrettyPrinter_Formatter_pushAlign.exit
  %33 = ptrtoint ptr %3 to i64
  %34 = and i64 %33, 1
  %.not25 = icmp eq i64 %34, 0
  br i1 %.not25, label %35, label %lean_dec.exit13

35:                                               ; preds = %lean_dec.exit14
  %36 = load i32, ptr %3, align 4, !tbaa !8
  %37 = icmp sgt i32 %36, 1
  br i1 %37, label %38, label %40, !prof !11

38:                                               ; preds = %35
  %39 = add nsw i32 %36, -1
  store i32 %39, ptr %3, align 4, !tbaa !8
  br label %lean_dec.exit13

40:                                               ; preds = %35
  %.not.i18 = icmp eq i32 %36, 0
  br i1 %.not.i18, label %lean_dec.exit13, label %41

41:                                               ; preds = %40
  tail call void @lean_dec_ref_cold(ptr noundef nonnull %3) #6
  br label %lean_dec.exit13

lean_dec.exit13:                                  ; preds = %41, %40, %38, %lean_dec.exit14
  %42 = ptrtoint ptr %2 to i64
  %43 = and i64 %42, 1
  %.not26 = icmp eq i64 %43, 0
  br i1 %.not26, label %44, label %lean_dec.exit12

44:                                               ; preds = %lean_dec.exit13
  %45 = load i32, ptr %2, align 4, !tbaa !8
  %46 = icmp sgt i32 %45, 1
  br i1 %46, label %47, label %49, !prof !11

47:                                               ; preds = %44
  %48 = add nsw i32 %45, -1
  store i32 %48, ptr %2, align 4, !tbaa !8
  br label %lean_dec.exit12

49:                                               ; preds = %44
  %.not.i20 = icmp eq i32 %45, 0
  br i1 %.not.i20, label %lean_dec.exit12, label %50

50:                                               ; preds = %49
  tail call void @lean_dec_ref_cold(ptr noundef nonnull %2) #6
  br label %lean_dec.exit12

lean_dec.exit12:                                  ; preds = %50, %49, %47, %lean_dec.exit13
  %51 = ptrtoint ptr %1 to i64
  %52 = and i64 %51, 1
  %.not27 = icmp eq i64 %52, 0
  br i1 %.not27, label %53, label %lean_dec.exit

53:                                               ; preds = %lean_dec.exit12
  %54 = load i32, ptr %1, align 4, !tbaa !8
  %55 = icmp sgt i32 %54, 1
  br i1 %55, label %56, label %58, !prof !11

56:                                               ; preds = %53
  %57 = add nsw i32 %54, -1
  store i32 %57, ptr %1, align 4, !tbaa !8
  br label %lean_dec.exit

58:                                               ; preds = %53
  %.not.i22 = icmp eq i32 %54, 0
  br i1 %.not.i22, label %lean_dec.exit, label %59

59:                                               ; preds = %58
  tail call void @lean_dec_ref_cold(ptr noundef nonnull %1) #6
  br label %lean_dec.exit

lean_dec.exit:                                    ; preds = %59, %58, %56, %lean_dec.exit12
  ret ptr %23
}